target datalayout = "e-m:e-p270:32:32-p271:32:32-p272:64:64-i64:64-i128:128-f80:128-n8:16:32:64-S128"
target triple = "x86_64-pc-linux-gnu"

%struct.persist_msg_t = type { ptr, ptr, i16 }

; Function Attrs: nounwind uwtable
define dso_local i32 @acct_storage_p_clear_stats(ptr noundef %0) #0 {
  %2 = alloca ptr, align 8
  %3 = alloca %struct.persist_msg_t, align 8
  %4 = alloca i32, align 4
  store ptr %0, ptr %2, align 8
  call void @llvm.lifetime.start.p0(i64 24, ptr %3) #9
  call void @llvm.memset.p0.i64(ptr align 8 %3, i8 0, i64 24, i1 false)
  call void @llvm.lifetime.start.p0(i64 4, ptr %4) #9
  store i32 0, ptr %4, align 4
  %5 = getelementptr inbounds nuw %struct.persist_msg_t, ptr %3, i32 0, i32 2
  store i16 1491, ptr %5, align 8
  %6 = load ptr, ptr %2, align 8
  %7 = getelementptr inbounds nuw %struct.persist_msg_t, ptr %3, i32 0, i32 0
  store ptr %6, ptr %7, align 8
  %8 = call i32 @dbd_conn_send_recv_rc_msg(i16 noundef zeroext 11008, ptr noundef %3, ptr noundef %4)
  %9 = load i32, ptr %4, align 4
  call void @llvm.lifetime.end.p0(i64 4, ptr %4) #9
  call void @llvm.lifetime.end.p0(i64 24, ptr %3) #9
  ret i32 %9
}